; Function Attrs: nounwind uwtable
define ptr @l___private_Lean_Elab_PreDefinition_MkInhabitant_0__Lean_Elab_withInhabitedInstances_go___rarg___lambda__1(ptr noundef %0, ptr noundef %1, ptr noundef %2, ptr noundef %3, ptr noundef %4, ptr noundef %5, ptr noundef %6, ptr noundef %7, ptr noundef %8, ptr noundef %9) local_unnamed_addr #0 {
  %11 = ptrtoint ptr %0 to i64
  %12 = and i64 %11, 1
  %.not = icmp eq i64 %12, 0
  br i1 %.not, label %.critedge.i, label %13, !prof !16

13:                                               ; preds = %10
  %14 = lshr i64 %11, 1
  %15 = add nuw i64 %14, 1
  %16 = icmp sgt i64 %15, -1
  br i1 %16, label %17, label %21, !prof !11

17:                                               ; preds = %13
  %18 = shl nuw i64 %15, 1
  %19 = or disjoint i64 %18, 1
  %20 = inttoptr i64 %19 to ptr
  br label %lean_nat_add.exit

21:                                               ; preds = %13
  %22 = tail call ptr @lean_big_usize_to_nat(i64 noundef range(i64 0, -1) %15) #4
  br label %lean_nat_add.exit

.critedge.i:                                      ; preds = %10
  %23 = tail call ptr @lean_nat_big_add(ptr noundef %0, ptr noundef nonnull inttoptr (i64 3 to ptr)) #4
  br label %lean_nat_add.exit

lean_nat_add.exit:                                ; preds = %21, %17, %.critedge.i
  %.0.i = phi ptr [ %23, %.critedge.i ], [ %20, %17 ], [ %22, %21 ]
  %24 = tail call ptr @lean_array_push(ptr noundef %1, ptr noundef %4) #4
  %25 = tail call ptr @l___private_Lean_Elab_PreDefinition_MkInhabitant_0__Lean_Elab_withInhabitedInstances_go___rarg(ptr noundef %2, ptr noundef %3, ptr noundef %.0.i, ptr noundef %24, ptr noundef %5, ptr noundef %6, ptr noundef %7, ptr noundef %8, ptr noundef %9)
  ret ptr %25
}